; Function Attrs: nounwind uwtable
define internal fastcc void @__redisAsyncHandleConnectFailure(ptr noundef %ac) unnamed_addr #0 {
entry:
  %onConnect.i = getelementptr inbounds i8, ptr %ac, i64 368
  %0 = load ptr, ptr %onConnect.i, align 8
  %cmp.i = icmp eq ptr %0, null
  br i1 %cmp.i, label %land.lhs.true.i, label %if.end.thread.i

land.lhs.true.i:                                  ; preds = %entry
  %onConnectNC.i = getelementptr inbounds i8, ptr %ac, i64 376
  %1 = load ptr, ptr %onConnectNC.i, align 8
  %cmp1.i = icmp eq ptr %1, null
  br i1 %cmp1.i, label %__redisAsyncCopyError.exit.i, label %if.end.i

if.end.i:                                         ; preds = %land.lhs.true.i
  %flags.i = getelementptr inbounds i8, ptr %ac, i64 144
  %2 = load i32, ptr %flags.i, align 8
  %and.i = and i32 %2, 16
  %tobool.not.i = icmp eq i32 %and.i, 0
  br i1 %tobool.not.i, label %if.end10.i, label %if.else19.i

if.end.thread.i:                                  ; preds = %entry
  %flags19.i = getelementptr inbounds i8, ptr %ac, i64 144
  %3 = load i32, ptr %flags19.i, align 8
  %and20.i = and i32 %3, 16
  %tobool.not21.i = icmp eq i32 %and20.i, 0
  br i1 %tobool.not21.i, label %if.end10.i, label %if.then17.i

if.end10.i:                                       ; preds = %if.end.thread.i, %if.end.i
  %.sink27.i = phi i32 [ %3, %if.end.thread.i ], [ %2, %if.end.i ]
  %flags.sink.i = phi ptr [ %flags19.i, %if.end.thread.i ], [ %flags.i, %if.end.i ]
  %.sink.i = phi ptr [ %0, %if.end.thread.i ], [ %1, %if.end.i ]
  %or.i = or disjoint i32 %.sink27.i, 16
  store i32 %or.i, ptr %flags.sink.i, align 8
  tail call void %.sink.i(ptr noundef nonnull %ac, i32 noundef -1) #14
  %4 = load i32, ptr %flags.sink.i, align 8
  %and13.i = and i32 %4, -17
  store i32 %and13.i, ptr %flags.sink.i, align 8
  br label %__redisAsyncCopyError.exit.i

if.then17.i:                                      ; preds = %if.end.thread.i
  tail call void %0(ptr noundef nonnull %ac, i32 noundef -1) #14
  br label %__redisAsyncCopyError.exit.i

if.else19.i:                                      ; preds = %if.end.i
  tail call void %1(ptr noundef nonnull %ac, i32 noundef -1) #14
  br label %__redisAsyncCopyError.exit.i

__redisAsyncCopyError.exit.i:                     ; preds = %land.lhs.true.i, %if.end10.i, %if.then17.i, %if.else19.i
  %err.i.i = getelementptr inbounds i8, ptr %ac, i64 8
  %5 = load i32, ptr %err.i.i, align 8
  %err2.i.i = getelementptr inbounds i8, ptr %ac, i64 272
  store i32 %5, ptr %err2.i.i, align 8
  %errstr.i.i = getelementptr inbounds i8, ptr %ac, i64 12
  %errstr3.i.i = getelementptr inbounds i8, ptr %ac, i64 280
  store ptr %errstr.i.i, ptr %errstr3.i.i, align 8
  %cmp.i2 = icmp eq i32 %5, 0
  br i1 %cmp.i2, label %if.then.i, label %if.else.i

if.then.i:                                        ; preds = %__redisAsyncCopyError.exit.i
  %replies.i = getelementptr inbounds i8, ptr %ac, i64 384
  %6 = load ptr, ptr %replies.i, align 8
  %cmp.not.i.i = icmp eq ptr %6, null
  br i1 %cmp.not.i.i, label %do.body.i, label %if.then.i.i

if.then.i.i:                                      ; preds = %if.then.i
  %7 = load ptr, ptr %6, align 8
  store ptr %7, ptr %replies.i, align 8
  %tail.i.i = getelementptr inbounds i8, ptr %ac, i64 392
  %8 = load ptr, ptr %tail.i.i, align 8
  %cmp2.i.i = icmp eq ptr %6, %8
  br i1 %cmp2.i.i, label %if.then3.i.i, label %if.end.i10.i

if.then3.i.i:                                     ; preds = %if.then.i.i
  store ptr null, ptr %tail.i.i, align 8
  br label %if.end.i10.i

if.end.i10.i:                                     ; preds = %if.then3.i.i, %if.then.i.i
  %9 = load ptr, ptr getelementptr inbounds (%struct.hiredisAllocFuncs, ptr @hiredisAllocFns, i64 0, i32 4), align 8
  tail call void %9(ptr noundef nonnull %6) #14
  br label %do.body.i

if.else.i:                                        ; preds = %__redisAsyncCopyError.exit.i
  %flags.i3 = getelementptr inbounds i8, ptr %ac, i64 144
  %10 = load i32, ptr %flags.i3, align 8
  %or.i4 = or i32 %10, 4
  store i32 %or.i4, ptr %flags.i3, align 8
  br label %do.body.i

do.body.i:                                        ; preds = %if.else.i, %if.end.i10.i, %if.then.i
  %cleanup.i = getelementptr inbounds i8, ptr %ac, i64 344
  %11 = load ptr, ptr %cleanup.i, align 8
  %tobool.not.i5 = icmp eq ptr %11, null
  br i1 %tobool.not.i5, label %if.end7.i, label %if.then3.i

if.then3.i:                                       ; preds = %do.body.i
  %ev.i = getelementptr inbounds i8, ptr %ac, i64 304
  %12 = load ptr, ptr %ev.i, align 8
  tail call void %11(ptr noundef %12) #14
  br label %if.end7.i

if.end7.i:                                        ; preds = %if.then3.i, %do.body.i
  store ptr null, ptr %cleanup.i, align 8
  %flags10.i = getelementptr inbounds i8, ptr %ac, i64 144
  %13 = load i32, ptr %flags10.i, align 8
  %and.i6 = and i32 %13, 512
  %tobool11.not.i = icmp eq i32 %and.i6, 0
  br i1 %tobool11.not.i, label %if.then12.i, label %__redisAsyncDisconnect.exit

if.then12.i:                                      ; preds = %if.end7.i
  tail call fastcc void @__redisAsyncFree(ptr noundef nonnull %ac)
  br label %__redisAsyncDisconnect.exit

__redisAsyncDisconnect.exit:                      ; preds = %if.end7.i, %if.then12.i
  ret void
}